target datalayout = "e-m:e-p270:32:32-p271:32:32-p272:64:64-i64:64-i128:128-f80:128-n8:16:32:64-S128"
target triple = "x86_64-pc-linux-gnu"

%class.QString = type { %struct.QArrayDataPointer }
%struct.QArrayDataPointer = type { ptr, ptr, i64 }
%class.TrafficTab = type <{ %class.DetachableTabWidget, %class.QList, %class.QMap, ptr, ptr, ptr, ptr, i8, i8, [6 x i8] }>
%class.DetachableTabWidget = type { %class.QTabWidget, %class.QString }
%class.QTabWidget = type { %class.QWidget }
%class.QWidget = type { %class.QObject, %class.QPaintDevice.base, ptr }
%class.QObject = type { ptr, %class.QScopedPointer }
%class.QScopedPointer = type { ptr }
%class.QPaintDevice.base = type <{ ptr, i16 }>
%class.QList = type { %struct.QArrayDataPointer.0 }
%struct.QArrayDataPointer.0 = type { ptr, ptr, i64 }
%class.QMap = type { %"class.QtPrivate::QExplicitlySharedDataPointerV2" }
%"class.QtPrivate::QExplicitlySharedDataPointerV2" = type { ptr }

; Function Attrs: mustprogress null_pointer_is_valid sspstrong uwtable
define noundef ptr @_ZN10TrafficTab20dataModelForTabIndexEi(ptr noundef align 8 dereferenceable_or_null(130) %0, i32 noundef %1) #2 align 2 {
  %3 = alloca ptr, align 8
  %4 = alloca i32, align 4
  store ptr %0, ptr %3, align 8
  store i32 %1, ptr %4, align 4
  %5 = load ptr, ptr %3, align 8
  %6 = load i32, ptr %4, align 4
  %7 = icmp eq i32 %6, -1
  br i1 %7, label %8, label %10

8:                                                ; preds = %2
  %9 = call noundef i32 @_ZNK10QTabWidget12currentIndexEv(ptr noundef align 8 dereferenceable_or_null(40) %5)
  store i32 %9, ptr %4, align 4
  br label %10

10:                                               ; preds = %8, %2
  %11 = load i32, ptr %4, align 4
  %12 = call noundef ptr @_ZNK10QTabWidget6widgetEi(ptr noundef align 8 dereferenceable_or_null(40) %5, i32 noundef %11)
  %13 = call noundef ptr @_ZN10TrafficTab18dataModelForWidgetEP7QWidget(ptr noundef align 8 dereferenceable_or_null(130) %5, ptr noundef %12)
  ret ptr %13
}

; Function Attrs: mustprogress null_pointer_is_valid sspstrong uwtable
define void @_ZN10TrafficTab17setNameResolutionEb(ptr noundef align 8 dereferenceable_or_null(130) %0, i1 noundef zeroext %1) #2 align 2 {
  %3 = alloca ptr, align 8
  %4 = alloca i8, align 1
  %5 = alloca i32, align 4
  %6 = alloca i32, align 4
  %7 = alloca ptr, align 8
  store ptr %0, ptr %3, align 8
  %8 = zext i1 %1 to i8
  store i8 %8, ptr %4, align 1
  %9 = load ptr, ptr %3, align 8
  %10 = load i8, ptr %4, align 1, !range !11, !noundef !12
  %11 = trunc i8 %10 to i1
  %12 = zext i1 %11 to i32
  %13 = getelementptr inbounds nuw %class.TrafficTab, ptr %9, i32 0, i32 8
  %14 = load i8, ptr %13, align 1, !range !11, !noundef !12
  %15 = trunc i8 %14 to i1
  %16 = zext i1 %15 to i32
  %17 = icmp eq i32 %12, %16
  br i1 %17, label %18, label %19

18:                                               ; preds = %2
  br label %49

19:                                               ; preds = %2
  call void @llvm.lifetime.start.p0(i64 4, ptr %5) #16
  store i32 0, ptr %5, align 4
  br label %20

20:                                               ; preds = %41, %19
  %21 = load i32, ptr %5, align 4
  %22 = call noundef i32 @_ZNK10QTabWidget5countEv(ptr noundef align 8 dereferenceable_or_null(40) %9)
  %23 = icmp slt i32 %21, %22
  br i1 %23, label %25, label %24

24:                                               ; preds = %20
  store i32 2, ptr %6, align 4
  call void @llvm.lifetime.end.p0(i64 4, ptr %5) #16
  br label %44

25:                                               ; preds = %20
  call void @llvm.lifetime.start.p0(i64 8, ptr %7) #16
  %26 = load i32, ptr %5, align 4
  %27 = call noundef ptr @_ZN10TrafficTab20dataModelForTabIndexEi(ptr noundef align 8 dereferenceable_or_null(130) %9, i32 noundef %26)
  store ptr %27, ptr %7, align 8
  %28 = load ptr, ptr %7, align 8
  %29 = icmp ne ptr %28, null
  br i1 %29, label %31, label %30

30:                                               ; preds = %25
  store i32 4, ptr %6, align 4
  br label %38

31:                                               ; preds = %25
  %32 = load ptr, ptr %7, align 8
  %33 = load i8, ptr %4, align 1, !range !11, !noundef !12
  %34 = trunc i8 %33 to i1
  %35 = load ptr, ptr %32, align 8
  %36 = getelementptr inbounds ptr, ptr %35, i64 49
  %37 = load ptr, ptr %36, align 8
  call void %37(ptr noundef align 8 dereferenceable_or_null(120) %32, i1 noundef zeroext %34)
  store i32 0, ptr %6, align 4
  br label %38

38:                                               ; preds = %31, %30
  call void @llvm.lifetime.end.p0(i64 8, ptr %7) #16
  %39 = load i32, ptr %6, align 4
  switch i32 %39, label %50 [
    i32 0, label %40
    i32 4, label %41
  ]

40:                                               ; preds = %38
  br label %41

41:                                               ; preds = %40, %38
  %42 = load i32, ptr %5, align 4
  %43 = add i32 %42, 1
  store i32 %43, ptr %5, align 4
  br label %20, !llvm.loop !23

44:                                               ; preds = %24
  %45 = load i8, ptr %4, align 1, !range !11, !noundef !12
  %46 = trunc i8 %45 to i1
  %47 = getelementptr inbounds nuw %class.TrafficTab, ptr %9, i32 0, i32 8
  %48 = zext i1 %46 to i8
  store i8 %48, ptr %47, align 1
  call void @_ZN10TrafficTab14tabDataChangedEii(ptr noundef align 8 dereferenceable_or_null(130) %9, i32 noundef -1, i32 noundef 0)
  br label %49

49:                                               ; preds = %44, %18
  ret void

50:                                               ; preds = %38
  unreachable
}