; Function Attrs: mustprogress null_pointer_is_valid sspstrong uwtable
define void @_ZN10TrafficTab17setNameResolutionEb(ptr noundef align 8 dereferenceable_or_null(130) %0, i1 noundef zeroext %1) local_unnamed_addr #3 align 2 {
  %3 = zext i1 %1 to i8
  %4 = getelementptr inbounds nuw i8, ptr %0, i64 129
  %5 = load i8, ptr %4, align 1, !range !144, !noundef !145
  %6 = icmp eq i8 %5, %3
  br i1 %6, label %19, label %.preheader

.preheader:                                       ; preds = %2
  %7 = tail call noundef i32 @_ZNK10QTabWidget5countEv(ptr noundef align 8 dereferenceable_or_null(40) %0)
  %8 = icmp sgt i32 %7, 0
  br i1 %8, label %_ZN10TrafficTab20dataModelForTabIndexEi.exit, label %._crit_edge

._crit_edge:                                      ; preds = %15, %.preheader
  store i8 %3, ptr %4, align 1
  tail call void @_ZN10TrafficTab14tabDataChangedEii(ptr noundef align 8 dereferenceable_or_null(130) %0, i32 noundef -1, i32 noundef 0)
  br label %19

_ZN10TrafficTab20dataModelForTabIndexEi.exit:     ; preds = %.preheader, %15
  %.09 = phi i32 [ %16, %15 ], [ 0, %.preheader ]
  %9 = tail call noundef ptr @_ZNK10QTabWidget6widgetEi(ptr noundef align 8 dereferenceable_or_null(130) %0, i32 noundef %.09)
  %10 = tail call noundef ptr @_ZN10TrafficTab18dataModelForWidgetEP7QWidget(ptr align 8 poison, ptr noundef %9)
  %.not = icmp eq ptr %10, null
  br i1 %.not, label %15, label %11

11:                                               ; preds = %_ZN10TrafficTab20dataModelForTabIndexEi.exit
  %12 = load ptr, ptr %10, align 8
  %13 = getelementptr inbounds nuw i8, ptr %12, i64 392
  %14 = load ptr, ptr %13, align 8
  tail call void %14(ptr noundef nonnull align 8 dereferenceable_or_null(120) %10, i1 noundef zeroext %1)
  br label %15

15:                                               ; preds = %_ZN10TrafficTab20dataModelForTabIndexEi.exit, %11
  %16 = add nuw nsw i32 %.09, 1
  %17 = tail call noundef i32 @_ZNK10QTabWidget5countEv(ptr noundef align 8 dereferenceable_or_null(40) %0)
  %18 = icmp slt i32 %16, %17
  br i1 %18, label %_ZN10TrafficTab20dataModelForTabIndexEi.exit, label %._crit_edge, !llvm.loop !146

19:                                               ; preds = %2, %._crit_edge
  ret void
}